target datalayout = "e-m:e-p270:32:32-p271:32:32-p272:64:64-i64:64-i128:128-f80:128-n8:16:32:64-S128"
target triple = "x86_64-pc-linux-gnu"

; Function Attrs: nounwind uwtable
define internal void @blend_copytop_16(ptr noundef %0, i64 noundef %1, ptr noundef %2, i64 noundef %3, ptr noundef %4, i64 noundef %5, i64 noundef %6, i64 noundef %7, ptr noundef %8, ptr noundef %9) #0 {
  %11 = alloca ptr, align 8
  %12 = alloca i64, align 8
  %13 = alloca ptr, align 8
  %14 = alloca i64, align 8
  %15 = alloca ptr, align 8
  %16 = alloca i64, align 8
  %17 = alloca i64, align 8
  %18 = alloca i64, align 8
  %19 = alloca ptr, align 8
  %20 = alloca ptr, align 8
  store ptr %0, ptr %11, align 8, !tbaa !46
  store i64 %1, ptr %12, align 8, !tbaa !88
  store ptr %2, ptr %13, align 8, !tbaa !46
  store i64 %3, ptr %14, align 8, !tbaa !88
  store ptr %4, ptr %15, align 8, !tbaa !46
  store i64 %5, ptr %16, align 8, !tbaa !88
  store i64 %6, ptr %17, align 8, !tbaa !88
  store i64 %7, ptr %18, align 8, !tbaa !88
  store ptr %8, ptr %19, align 8, !tbaa !77
  store ptr %9, ptr %20, align 8, !tbaa !89
  %21 = load ptr, ptr %15, align 8, !tbaa !46
  %22 = load i64, ptr %16, align 8, !tbaa !88
  %23 = trunc i64 %22 to i32
  %24 = load ptr, ptr %11, align 8, !tbaa !46
  %25 = load i64, ptr %12, align 8, !tbaa !88
  %26 = trunc i64 %25 to i32
  %27 = load i64, ptr %17, align 8, !tbaa !88
  %28 = mul nsw i64 %27, 16
  %29 = sdiv i64 %28, 8
  %30 = trunc i64 %29 to i32
  %31 = load i64, ptr %18, align 8, !tbaa !88
  %32 = trunc i64 %31 to i32
  call void @av_image_copy_plane(ptr noundef %21, i32 noundef %23, ptr noundef %24, i32 noundef %26, i32 noundef %30, i32 noundef %32)
  ret void
}